target datalayout = "e-m:e-p270:32:32-p271:32:32-p272:64:64-i64:64-i128:128-f80:128-n8:16:32:64-S128"
target triple = "x86_64-pc-linux-gnu"

%struct.ErrorSaveContext = type { i32, i8, i8, ptr }

@.str.18 = private unnamed_addr constant [22 x i8] c"jsonb_populate_record\00", align 1
@__const.jsonb_populate_record_valid.escontext = private unnamed_addr constant { i32, i8, i8, [2 x i8], ptr } { i32 446, i8 0, i8 0, [2 x i8] zeroinitializer, ptr null }, align 8

; Function Attrs: inlinehint nounwind uwtable
define internal i64 @BoolGetDatum(i1 noundef zeroext %0) #3 {
  %2 = alloca i8, align 1
  %3 = zext i1 %0 to i8
  store i8 %3, ptr %2, align 1
  %4 = load i8, ptr %2, align 1, !range !4, !noundef !5
  %5 = trunc i8 %4 to i1
  %6 = select i1 %5, i32 1, i32 0
  %7 = sext i32 %6 to i64
  ret i64 %7
}

; Function Attrs: nounwind uwtable
define dso_local i64 @jsonb_populate_record_valid(ptr noundef %0) #0 {
  %2 = alloca ptr, align 8
  %3 = alloca %struct.ErrorSaveContext, align 8
  store ptr %0, ptr %2, align 8
  call void @llvm.lifetime.start.p0(i64 16, ptr %3) #10
  call void @llvm.memcpy.p0.p0.i64(ptr align 8 %3, ptr align 8 @__const.jsonb_populate_record_valid.escontext, i64 16, i1 false)
  %4 = load ptr, ptr %2, align 8
  %5 = call i64 @populate_record_worker(ptr noundef %4, ptr noundef @.str.18, i1 noundef zeroext false, i1 noundef zeroext true, ptr noundef %3)
  %6 = getelementptr inbounds nuw %struct.ErrorSaveContext, ptr %3, i32 0, i32 1
  %7 = load i8, ptr %6, align 4, !range !4, !noundef !5
  %8 = trunc i8 %7 to i1
  %9 = xor i1 %8, true
  %10 = call i64 @BoolGetDatum(i1 noundef zeroext %9)
  call void @llvm.lifetime.end.p0(i64 16, ptr %3) #10
  ret i64 %10
}