; Function Attrs: nounwind uwtable
define dso_local range(i64 0, 2) i64 @jsonb_populate_record_valid(ptr noundef %0) local_unnamed_addr #0 {
  %2 = alloca %struct.ErrorSaveContext, align 8
  call void @llvm.lifetime.start.p0(i64 16, ptr nonnull %2) #15
  call void @llvm.memcpy.p0.p0.i64(ptr noundef nonnull align 8 dereferenceable(16) %2, ptr noundef nonnull align 8 dereferenceable(16) @__const.jsonb_populate_record_valid.escontext, i64 16, i1 false)
  %3 = call fastcc i64 @populate_record_worker(ptr noundef %0, ptr noundef nonnull @.str.18, i1 noundef zeroext false, i1 noundef zeroext true, ptr noundef nonnull %2)
  %4 = getelementptr inbounds nuw i8, ptr %2, i64 4
  %5 = load i8, ptr %4, align 4, !range !4, !noundef !5
  %6 = xor i8 %5, 1
  %7 = zext nneg i8 %6 to i64
  call void @llvm.lifetime.end.p0(i64 16, ptr nonnull %2) #15
  ret i64 %7
}